(dp1
S'layout'
p2
(ilayout
Layout
p3
(dp4
S'capsules'
p5
(lp6
sS'numGhosts'
p7
I0
sS'food'
p8
(igame
Grid
p9
(dp10
S'CELLS_PER_INT'
p11
I30
sS'width'
p12
I30
sS'data'
p13
(lp14
(lp15
I00
aI00
aI00
aI00
aI00
aI00
aI00
aI00
aI00
aI00
aI00
aI00
aI00
aI00
aa(lp16
I00
aI01
aI00
aI00
aI00
aI00
aI00
aI00
aI00
aI00
aI00
aI00
aI01
aI00
aa(lp17
I00
aI00
aI00
aI00
aI00
aI00
aI00
aI00
aI00
aI00
aI00
aI00
aI00
aI00
aa(lp18
I00
aI00
aI00
aI00
aI00
aI00
aI00
aI00
aI00
aI00
aI00
aI00
aI00
aI00
aa(lp19
I00
aI00
aI00
aI00
aI00
aI00
aI00
aI00
aI00
aI00
aI00
aI00
aI00
aI00
aa(lp20
I00
aI00
aI00
aI00
aI00
aI00
aI00
aI00
aI00
aI00
aI00
aI00
aI00
aI00
aa(lp21
I00
aI00
aI00
aI00
aI00
aI00
aI00
aI00
aI00
aI00
aI00
aI00
aI00
aI00
aa(lp22
I00
aI00
aI00
aI00
aI00
aI00
aI00
aI00
aI00
aI00
aI00
aI00
aI00
aI00
aa(lp23
I00
aI00
aI00
aI00
aI00
aI00
aI00
aI00
aI00
aI00
aI00
aI00
aI00
aI00
aa(lp24
I00
aI00
aI00
aI00
aI00
aI00
aI00
aI00
aI00
aI00
aI00
aI00
aI00
aI00
aa(lp25
I00
aI00
aI00
aI00
aI00
aI00
aI00
aI00
aI00
aI00
aI00
aI00
aI00
aI00
aa(lp26
I00
aI00
aI00
aI00
aI00
aI00
aI00
aI00
aI00
aI00
aI00
aI00
aI00
aI00
aa(lp27
I00
aI00
aI00
aI00
aI00
aI00
aI00
aI00
aI00
aI00
aI00
aI00
aI00
aI00
aa(lp28
I00
aI00
aI00
aI00
aI00
aI00
aI00
aI00
aI00
aI00
aI00
aI00
aI00
aI00
aa(lp29
I00
aI00
aI00
aI00
aI00
aI00
aI00
aI00
aI00
aI00
aI00
aI00
aI00
aI00
aa(lp30
I00
aI00
aI00
aI00
aI00
aI00
aI00
aI00
aI00
aI00
aI00
aI00
aI00
aI00
aa(lp31
I00
aI00
aI00
aI00
aI00
aI00
aI00
aI00
aI00
aI00
aI00
aI00
aI00
aI00
aa(lp32
I00
aI00
aI00
aI00
aI00
aI00
aI00
aI00
aI00
aI00
aI00
aI00
aI00
aI00
aa(lp33
I00
aI00
aI00
aI00
aI00
aI00
aI00
aI00
aI00
aI00
aI00
aI00
aI00
aI00
aa(lp34
I00
aI00
aI00
aI00
aI00
aI00
aI00
aI00
aI00
aI00
aI00
aI00
aI00
aI00
aa(lp35
I00
aI00
aI00
aI00
aI00
aI00
aI00
aI00
aI00
aI00
aI00
aI00
aI00
aI00
aa(lp36
I00
aI00
aI00
aI00
aI00
aI00
aI00
aI00
aI00
aI00
aI00
aI00
aI00
aI00
aa(lp37
I00
aI00
aI00
aI00
aI00
aI00
aI00
aI00
aI00
aI00
aI00
aI00
aI00
aI00
aa(lp38
I00
aI00
aI00
aI00
aI00
aI00
aI00
aI00
aI00
aI00
aI00
aI00
aI00
aI00
aa(lp39
I00
aI00
aI00
aI00
aI00
aI00
aI00
aI00
aI00
aI00
aI00
aI00
aI00
aI00
aa(lp40
I00
aI00
aI00
aI00
aI00
aI00
aI00
aI00
aI00
aI00
aI00
aI00
aI00
aI00
aa(lp41
I00
aI00
aI00
aI00
aI00
aI00
aI00
aI00
aI00
aI00
aI00
aI00
aI00
aI00
aa(lp42
I00
aI00
aI00
aI00
aI00
aI00
aI00
aI00
aI00
aI00
aI00
aI00
aI00
aI00
aa(lp43
I00
aI01
aI00
aI00
aI00
aI00
aI00
aI00
aI00
aI00
aI00
aI00
aI01
aI00
aa(lp44
I00
aI00
aI00
aI00
aI00
aI00
aI00
aI00
aI00
aI00
aI00
aI00
aI00
aI00
aasS'height'
p45
I14
sbsS'agentPositions'
p46
(lp47
(I01
(I5
I1
tp48
tp49
asg45
I14
sg12
I30
sS'walls'
p50
(igame
Grid
p51
(dp52
g11
I30
sg12
I30
sg13
(lp53
(lp54
I01
aI01
aI01
aI01
aI01
aI01
aI01
aI01
aI01
aI01
aI01
aI01
aI01
aI01
aa(lp55
I01
aI00
aI00
aI00
aI00
aI01
aI00
aI00
aI00
aI01
aI00
aI00
aI00
aI01
aa(lp56
I01
aI00
aI00
aI01
aI01
aI01
aI00
aI01
aI00
aI01
aI00
aI00
aI00
aI01
aa(lp57
I01
aI00
aI00
aI00
aI00
aI00
aI00
aI01
aI00
aI01
aI00
aI00
aI00
aI01
aa(lp58
I01
aI01
aI01
aI01
aI00
aI01
aI00
aI01
aI01
aI01
aI00
aI00
aI00
aI01
aa(lp59
I01
aI00
aI00
aI01
aI00
aI00
aI00
aI00
aI00
aI00
aI00
aI00
aI00
aI01
aa(lp60
I01
aI01
aI00
aI01
aI00
aI01
aI00
aI01
aI01
aI01
aI00
aI00
aI00
aI01
aa(lp61
I01
aI01
aI00
aI01
aI00
aI01
aI00
aI00
aI00
aI01
aI00
aI00
aI00
aI01
aa(lp62
I01
aI01
aI00
aI01
aI00
aI01
aI01
aI01
aI01
aI01
aI01
aI01
aI01
aI01
aa(lp63
I01
aI01
aI00
aI00
aI00
aI01
aI00
aI00
aI00
aI01
aI00
aI00
aI00
aI01
aa(lp64
I01
aI01
aI01
aI01
aI00
aI01
aI00
aI01
aI01
aI01
aI00
aI01
aI01
aI01
aa(lp65
I01
aI00
aI00
aI00
aI00
aI01
aI00
aI00
aI00
aI00
aI00
aI00
aI00
aI01
aa(lp66
I01
aI00
aI00
aI01
aI00
aI01
aI00
aI01
aI00
aI01
aI00
aI01
aI01
aI01
aa(lp67
I01
aI00
aI00
aI01
aI00
aI00
aI00
aI01
aI00
aI01
aI00
aI01
aI00
aI01
aa(lp68
I01
aI00
aI00
aI01
aI01
aI01
aI01
aI01
aI01
aI01
aI00
aI01
aI00
aI01
aa(lp69
I01
aI00
aI00
aI01
aI01
aI01
aI01
aI01
aI00
aI00
aI00
aI01
aI00
aI01
aa(lp70
I01
aI00
aI00
aI00
aI00
aI01
aI00
aI01
aI00
aI01
aI00
aI01
aI00
aI01
aa(lp71
I01
aI01
aI01
aI01
aI00
aI01
aI00
aI01
aI00
aI01
aI01
aI01
aI00
aI01
aa(lp72
I01
aI00
aI00
aI00
aI00
aI00
aI00
aI01
aI00
aI00
aI00
aI00
aI00
aI01
aa(lp73
I01
aI01
aI01
aI01
aI00
aI01
aI00
aI01
aI01
aI01
aI00
aI01
aI00
aI01
aa(lp74
I01
aI01
aI00
aI01
aI00
aI01
aI00
aI00
aI00
aI01
aI00
aI01
aI00
aI01
aa(lp75
I01
aI01
aI00
aI01
aI01
aI01
aI01
aI01
aI00
aI01
aI00
aI01
aI00
aI01
aa(lp76
I01
aI00
aI00
aI00
aI00
aI00
aI00
aI01
aI00
aI01
aI00
aI01
aI00
aI01
aa(lp77
I01
aI01
aI01
aI01
aI00
aI01
aI01
aI01
aI00
aI01
aI01
aI01
aI00
aI01
aa(lp78
I01
aI00
aI00
aI01
aI00
aI00
aI00
aI00
aI00
aI00
aI00
aI01
aI00
aI01
aa(lp79
I01
aI00
aI01
aI01
aI00
aI01
aI01
aI01
aI01
aI01
aI01
aI01
aI00
aI01
aa(lp80
I01
aI00
aI01
aI00
aI00
aI00
aI00
aI01
aI00
aI00
aI00
aI00
aI00
aI01
aa(lp81
I01
aI00
aI01
aI01
aI01
aI01
aI00
aI01
aI00
aI01
aI00
aI01
aI01
aI01
aa(lp82
I01
aI00
aI00
aI00
aI00
aI00
aI00
aI00
aI00
aI01
aI00
aI00
aI00
aI01
aa(lp83
I01
aI01
aI01
aI01
aI01
aI01
aI01
aI01
aI01
aI01
aI01
aI01
aI01
aI01
aasg45
I14
sbsS'totalFood'
p84
I4
sS'layoutText'
p85
(lp86
S'%%%%%%%%%%%%%%%%%%%%%%%%%%%%%%'
p87
aS'%.      % % %              %.%'
p88
aS'%       % % %%%%%% %%%%%%% % %'
p89
aS'%       %        %     % %   %'
p90
aS'%%%%% %%%%% %%% %% %%%%% % %%%'
p91
aS'%   % % % %   %    %     %   %'
p92
aS'% %%% % % % %%%%%%%% %%% %%% %'
p93
aS'%       %     %%     % % %   %'
p94
aS'%%% % %%%%%%% %%%% %%% % % % %'
p95
aS'% %           %%     %     % %'
p96
aS'% % %%%%% % %%%% % %%% %%% % %'
p97
aS'%   %     %      % %   % %%% %'
p98
aS'%.  %P%%%%%      % %%% %    .%'
p99
aS'%%%%%%%%%%%%%%%%%%%%%%%%%%%%%%'
p100
asbsS'actions'
p101
(lp102
(I0
S'North'
p103
tp104
a(I0
S'East'
p105
tp106
a(I0
g105
tp107
a(I0
g105
tp108
a(I0
g105
tp109
a(I0
g103
tp110
a(I0
g103
tp111
a(I0
S'West'
p112
tp113
a(I0
g112
tp114
a(I0
g112
tp115
a(I0
g112
tp116
a(I0
g112
tp117
a(I0
g112
tp118
a(I0
S'South'
p119
tp120
a(I0
g119
tp121
a(I0
g119
tp122
a(I0
g112
tp123
a(I0
g112
tp124
a(I0
g103
tp125
a(I0
g105
tp126
a(I0
g105
tp127
a(I0
g103
tp128
a(I0
g103
tp129
a(I0
g103
tp130
a(I0
g103
tp131
a(I0
g105
tp132
a(I0
g105
tp133
a(I0
g103
tp134
a(I0
g103
tp135
a(I0
g103
tp136
a(I0
g103
tp137
a(I0
g103
tp138
a(I0
g103
tp139
a(I0
g112
tp140
a(I0
g112
tp141
a(I0
g112
tp142
a(I0
g112
tp143
a(I0
g119
tp144
a(I0
g119
tp145
a(I0
g105
tp146
a(I0
g105
tp147
a(I0
g105
tp148
a(I0
g105
tp149
a(I0
g119
tp150
a(I0
g119
tp151
a(I0
g119
tp152
a(I0
g119
tp153
a(I0
g119
tp154
a(I0
g119
tp155
a(I0
g105
tp156
a(I0
g105
tp157
a(I0
g105
tp158
a(I0
g105
tp159
a(I0
g105
tp160
a(I0
g105
tp161
a(I0
g119
tp162
a(I0
g119
tp163
a(I0
g105
tp164
a(I0
g105
tp165
a(I0
g105
tp166
a(I0
g105
tp167
a(I0
g105
tp168
a(I0
g103
tp169
a(I0
g103
tp170
a(I0
g105
tp171
a(I0
g105
tp172
a(I0
g103
tp173
a(I0
g103
tp174
a(I0
g105
tp175
a(I0
g105
tp176
a(I0
g103
tp177
a(I0
g103
tp178
a(I0
g105
tp179
a(I0
g105
tp180
a(I0
g105
tp181
a(I0
g105
tp182
a(I0
g119
tp183
a(I0
g119
tp184
a(I0
g119
tp185
a(I0
g119
tp186
a(I0
g105
tp187
a(I0
g105
tp188
a(I0
g103
tp189
a(I0
g103
tp190
a(I0
g105
tp191
a(I0
g105
tp192
a(I0
g119
tp193
a(I0
g119
tp194
a(I0
g119
tp195
a(I0
g119
tp196
a(I0
g119
tp197
a(I0
g103
tp198
a(I0
g103
tp199
a(I0
g103
tp200
a(I0
g103
tp201
a(I0
g103
tp202
a(I0
g103
tp203
a(I0
g103
tp204
a(I0
g112
tp205
a(I0
g112
tp206
a(I0
g103
tp207
a(I0
g103
tp208
a(I0
g105
tp209
a(I0
g105
tp210
a(I0
g103
tp211
a(I0
g103
tp212
as.