(dp1
S'layout'
p2
(ilayout
Layout
p3
(dp4
S'capsules'
p5
(lp6
sS'numGhosts'
p7
I0
sS'food'
p8
(igame
Grid
p9
(dp10
S'CELLS_PER_INT'
p11
I30
sS'width'
p12
I8
sS'data'
p13
(lp14
(lp15
I00
aI00
aI00
aI00
aI00
aI00
aI00
aI00
aa(lp16
I00
aI01
aI00
aI00
aI00
aI00
aI01
aI00
aa(lp17
I00
aI00
aI00
aI00
aI00
aI00
aI00
aI00
aa(lp18
I00
aI00
aI00
aI00
aI00
aI00
aI00
aI00
aa(lp19
I00
aI00
aI00
aI00
aI00
aI00
aI00
aI00
aa(lp20
I00
aI00
aI00
aI00
aI00
aI00
aI00
aI00
aa(lp21
I00
aI01
aI00
aI00
aI00
aI00
aI01
aI00
aa(lp22
I00
aI00
aI00
aI00
aI00
aI00
aI00
aI00
aasS'height'
p23
I8
sbsS'agentPositions'
p24
(lp25
(I01
(I4
I5
tp26
tp27
asg23
I8
sg12
I8
sS'walls'
p28
(igame
Grid
p29
(dp30
g11
I30
sg12
I8
sg13
(lp31
(lp32
I01
aI01
aI01
aI01
aI01
aI01
aI01
aI01
aa(lp33
I01
aI00
aI00
aI00
aI00
aI00
aI00
aI01
aa(lp34
I01
aI01
aI01
aI01
aI01
aI00
aI00
aI01
aa(lp35
I01
aI00
aI00
aI00
aI01
aI00
aI00
aI01
aa(lp36
I01
aI00
aI01
aI00
aI01
aI00
aI00
aI01
aa(lp37
I01
aI00
aI01
aI00
aI01
aI00
aI00
aI01
aa(lp38
I01
aI00
aI01
aI00
aI00
aI00
aI00
aI01
aa(lp39
I01
aI01
aI01
aI01
aI01
aI01
aI01
aI01
aasg23
I8
sbsS'totalFood'
p40
I4
sS'layoutText'
p41
(lp42
S'%%%%%%%%'
p43
aS'%.    .%'
p44
aS'%   P  %'
p45
aS'% %%%% %'
p46
aS'% %    %'
p47
aS'% % %%%%'
p48
aS'%.%   .%'
p49
aS'%%%%%%%%'
p50
asbsS'actions'
p51
(lp52
(I0
S'West'
p53
tp54
a(I0
g53
tp55
a(I0
g53
tp56
a(I0
S'South'
p57
tp58
a(I0
g57
tp59
a(I0
g57
tp60
a(I0
g57
tp61
a(I0
S'North'
p62
tp63
a(I0
g62
tp64
a(I0
g62
tp65
a(I0
g62
tp66
a(I0
g62
tp67
a(I0
S'East'
p68
tp69
a(I0
g68
tp70
a(I0
g68
tp71
a(I0
g68
tp72
a(I0
g68
tp73
a(I0
g57
tp74
a(I0
g57
tp75
a(I0
g57
tp76
a(I0
g53
tp77
a(I0
g53
tp78
a(I0
g53
tp79
a(I0
g57
tp80
a(I0
g57
tp81
a(I0
g68
tp82
a(I0
g68
tp83
a(I0
g68
tp84
as.